target datalayout = "e-m:e-p270:32:32-p271:32:32-p272:64:64-i64:64-i128:128-f80:128-n8:16:32:64-S128"
target triple = "x86_64-unknown-linux-gnu"

%"class.icu_75::RBBIRuleBuilder" = type { ptr, ptr, ptr, ptr, ptr, %"class.icu_75::UnicodeString", ptr, ptr, ptr, ptr, ptr, ptr, i8, i8, ptr, ptr, ptr, ptr }
%"class.icu_75::UnicodeString" = type { %"class.icu_75::Replaceable", %"union.icu_75::UnicodeString::StackBufferOrFields" }
%"class.icu_75::Replaceable" = type { %"class.icu_75::UObject" }
%"class.icu_75::UObject" = type { ptr }
%"union.icu_75::UnicodeString::StackBufferOrFields" = type { %struct.anon.0, [32 x i8] }
%struct.anon.0 = type { i16, i32, i32, ptr }

@_ZTVN6icu_7515RBBIRuleBuilderE = unnamed_addr constant { [4 x ptr] } { [4 x ptr] [ptr null, ptr @_ZTIN6icu_7515RBBIRuleBuilderE, ptr @_ZN6icu_7515RBBIRuleBuilderD1Ev, ptr @_ZN6icu_7515RBBIRuleBuilderD0Ev] }, align 8

; Function Attrs: mustprogress nounwind uwtable
define internal noundef signext i8 @_ZL9U_FAILURE10UErrorCode(i32 noundef %code) #3 {
entry:
  %code.addr = alloca i32, align 4
  store i32 %code, ptr %code.addr, align 4
  %0 = load i32, ptr %code.addr, align 4
  %cmp = icmp sgt i32 %0, 0
  %conv = zext i1 %cmp to i8
  ret i8 %conv
}

; Function Attrs: mustprogress uwtable
define void @_ZN6icu_7515RBBIRuleBuilderC2ERKNS_13UnicodeStringEP11UParseErrorR10UErrorCode(ptr noundef nonnull align 8 dereferenceable(192) %this, ptr noundef nonnull align 8 dereferenceable(64) %rules, ptr noundef %parseErr, ptr noundef nonnull align 4 dereferenceable(4) %status) unnamed_addr #0 align 2 personality ptr @__gxx_personality_v0 {
entry:
  %this.addr = alloca ptr, align 8
  %rules.addr = alloca ptr, align 8
  %parseErr.addr = alloca ptr, align 8
  %status.addr = alloca ptr, align 8
  %exn.slot = alloca ptr, align 8
  %ehselector.slot = alloca i32, align 4
  %saved-rvalue = alloca ptr, align 8
  %cleanup.cond = alloca i1, align 1
  %saved-rvalue14 = alloca ptr, align 8
  %cleanup.cond15 = alloca i1, align 1
  %saved-rvalue26 = alloca ptr, align 8
  %cleanup.cond27 = alloca i1, align 1
  %saved-rvalue38 = alloca ptr, align 8
  %cleanup.cond39 = alloca i1, align 1
  store ptr %this, ptr %this.addr, align 8
  store ptr %rules, ptr %rules.addr, align 8
  store ptr %parseErr, ptr %parseErr.addr, align 8
  store ptr %status, ptr %status.addr, align 8
  %this1 = load ptr, ptr %this.addr, align 8
  store ptr getelementptr inbounds ({ [4 x ptr] }, ptr @_ZTVN6icu_7515RBBIRuleBuilderE, i32 0, i32 0, i32 2), ptr %this1, align 8
  %fRules = getelementptr inbounds %"class.icu_75::RBBIRuleBuilder", ptr %this1, i32 0, i32 4
  %0 = load ptr, ptr %rules.addr, align 8
  store ptr %0, ptr %fRules, align 8
  %fStrippedRules = getelementptr inbounds %"class.icu_75::RBBIRuleBuilder", ptr %this1, i32 0, i32 5
  %1 = load ptr, ptr %rules.addr, align 8
  call void @_ZN6icu_7513UnicodeStringC1ERKS0_(ptr noundef nonnull align 8 dereferenceable(64) %fStrippedRules, ptr noundef nonnull align 8 dereferenceable(64) %1)
  %2 = load ptr, ptr %status.addr, align 8
  %fStatus = getelementptr inbounds %"class.icu_75::RBBIRuleBuilder", ptr %this1, i32 0, i32 2
  store ptr %2, ptr %fStatus, align 8
  %3 = load ptr, ptr %parseErr.addr, align 8
  %fParseError = getelementptr inbounds %"class.icu_75::RBBIRuleBuilder", ptr %this1, i32 0, i32 3
  store ptr %3, ptr %fParseError, align 8
  %fDebugEnv = getelementptr inbounds %"class.icu_75::RBBIRuleBuilder", ptr %this1, i32 0, i32 1
  store ptr null, ptr %fDebugEnv, align 8
  %fForwardTree = getelementptr inbounds %"class.icu_75::RBBIRuleBuilder", ptr %this1, i32 0, i32 7
  store ptr null, ptr %fForwardTree, align 8
  %fReverseTree = getelementptr inbounds %"class.icu_75::RBBIRuleBuilder", ptr %this1, i32 0, i32 8
  store ptr null, ptr %fReverseTree, align 8
  %fSafeFwdTree = getelementptr inbounds %"class.icu_75::RBBIRuleBuilder", ptr %this1, i32 0, i32 9
  store ptr null, ptr %fSafeFwdTree, align 8
  %fSafeRevTree = getelementptr inbounds %"class.icu_75::RBBIRuleBuilder", ptr %this1, i32 0, i32 10
  store ptr null, ptr %fSafeRevTree, align 8
  %fForwardTree2 = getelementptr inbounds %"class.icu_75::RBBIRuleBuilder", ptr %this1, i32 0, i32 7
  %fDefaultTree = getelementptr inbounds %"class.icu_75::RBBIRuleBuilder", ptr %this1, i32 0, i32 11
  store ptr %fForwardTree2, ptr %fDefaultTree, align 8
  %fForwardTable = getelementptr inbounds %"class.icu_75::RBBIRuleBuilder", ptr %this1, i32 0, i32 16
  store ptr null, ptr %fForwardTable, align 8
  %fRuleStatusVals = getelementptr inbounds %"class.icu_75::RBBIRuleBuilder", ptr %this1, i32 0, i32 17
  store ptr null, ptr %fRuleStatusVals, align 8
  %fChainRules = getelementptr inbounds %"class.icu_75::RBBIRuleBuilder", ptr %this1, i32 0, i32 12
  store i8 0, ptr %fChainRules, align 8
  %fLookAheadHardBreak = getelementptr inbounds %"class.icu_75::RBBIRuleBuilder", ptr %this1, i32 0, i32 13
  store i8 0, ptr %fLookAheadHardBreak, align 1
  %fUSetNodes = getelementptr inbounds %"class.icu_75::RBBIRuleBuilder", ptr %this1, i32 0, i32 15
  store ptr null, ptr %fUSetNodes, align 8
  %fRuleStatusVals3 = getelementptr inbounds %"class.icu_75::RBBIRuleBuilder", ptr %this1, i32 0, i32 17
  store ptr null, ptr %fRuleStatusVals3, align 8
  %fScanner = getelementptr inbounds %"class.icu_75::RBBIRuleBuilder", ptr %this1, i32 0, i32 6
  store ptr null, ptr %fScanner, align 8
  %fSetBuilder = getelementptr inbounds %"class.icu_75::RBBIRuleBuilder", ptr %this1, i32 0, i32 14
  store ptr null, ptr %fSetBuilder, align 8
  %4 = load ptr, ptr %parseErr.addr, align 8
  %tobool = icmp ne ptr %4, null
  br i1 %tobool, label %if.then, label %if.end

if.then:                                          ; preds = %entry
  %5 = load ptr, ptr %parseErr.addr, align 8
  call void @llvm.memset.p0.i64(ptr align 4 %5, i8 0, i64 72, i1 false)
  br label %if.end

if.end:                                           ; preds = %if.then, %entry
  %6 = load ptr, ptr %status.addr, align 8
  %7 = load i32, ptr %6, align 4
  %call = invoke noundef signext i8 @_ZL9U_FAILURE10UErrorCode(i32 noundef %7)
          to label %invoke.cont unwind label %lpad

invoke.cont:                                      ; preds = %if.end
  %tobool4 = icmp ne i8 %call, 0
  br i1 %tobool4, label %if.then5, label %if.end6

if.then5:                                         ; preds = %invoke.cont
  br label %if.end62

lpad:                                             ; preds = %new.cont45, %if.end
  %8 = landingpad { ptr, i32 }
          cleanup
  %9 = extractvalue { ptr, i32 } %8, 0
  store ptr %9, ptr %exn.slot, align 8
  %10 = extractvalue { ptr, i32 } %8, 1
  store i32 %10, ptr %ehselector.slot, align 4
  br label %ehcleanup

if.end6:                                          ; preds = %invoke.cont
  %call7 = call noundef ptr @_ZN6icu_757UMemorynwEm(i64 noundef 40) #8
  %new.isnull = icmp eq ptr %call7, null
  store i1 false, ptr %cleanup.cond, align 1
  br i1 %new.isnull, label %new.cont, label %new.notnull

new.notnull:                                      ; preds = %if.end6
  store ptr %call7, ptr %saved-rvalue, align 8
  store i1 true, ptr %cleanup.cond, align 1
  %11 = load ptr, ptr %status.addr, align 8
  invoke void @_ZN6icu_757UVectorC1ER10UErrorCode(ptr noundef nonnull align 8 dereferenceable(40) %call7, ptr noundef nonnull align 4 dereferenceable(4) %11)
          to label %invoke.cont9 unwind label %lpad8

invoke.cont9:                                     ; preds = %new.notnull
  br label %new.cont

new.cont:                                         ; preds = %invoke.cont9, %if.end6
  %12 = phi ptr [ %call7, %invoke.cont9 ], [ null, %if.end6 ]
  %fUSetNodes10 = getelementptr inbounds %"class.icu_75::RBBIRuleBuilder", ptr %this1, i32 0, i32 15
  store ptr %12, ptr %fUSetNodes10, align 8
  %call11 = call noundef ptr @_ZN6icu_757UMemorynwEm(i64 noundef 40) #8
  %new.isnull12 = icmp eq ptr %call11, null
  store i1 false, ptr %cleanup.cond15, align 1
  br i1 %new.isnull12, label %new.cont21, label %new.notnull13

new.notnull13:                                    ; preds = %new.cont
  store ptr %call11, ptr %saved-rvalue14, align 8
  store i1 true, ptr %cleanup.cond15, align 1
  %13 = load ptr, ptr %status.addr, align 8
  invoke void @_ZN6icu_757UVectorC1ER10UErrorCode(ptr noundef nonnull align 8 dereferenceable(40) %call11, ptr noundef nonnull align 4 dereferenceable(4) %13)
          to label %invoke.cont17 unwind label %lpad16

invoke.cont17:                                    ; preds = %new.notnull13
  br label %new.cont21

new.cont21:                                       ; preds = %invoke.cont17, %new.cont
  %14 = phi ptr [ %call11, %invoke.cont17 ], [ null, %new.cont ]
  %fRuleStatusVals22 = getelementptr inbounds %"class.icu_75::RBBIRuleBuilder", ptr %this1, i32 0, i32 17
  store ptr %14, ptr %fRuleStatusVals22, align 8
  %call23 = call noundef ptr @_ZN6icu_757UMemorynwEm(i64 noundef 3192) #8
  %new.isnull24 = icmp eq ptr %call23, null
  store i1 false, ptr %cleanup.cond27, align 1
  br i1 %new.isnull24, label %new.cont33, label %new.notnull25

new.notnull25:                                    ; preds = %new.cont21
  store ptr %call23, ptr %saved-rvalue26, align 8
  store i1 true, ptr %cleanup.cond27, align 1
  invoke void @_ZN6icu_7515RBBIRuleScannerC1EPNS_15RBBIRuleBuilderE(ptr noundef nonnull align 8 dereferenceable(3192) %call23, ptr noundef %this1)
          to label %invoke.cont29 unwind label %lpad28

invoke.cont29:                                    ; preds = %new.notnull25
  br label %new.cont33

new.cont33:                                       ; preds = %invoke.cont29, %new.cont21
  %15 = phi ptr [ %call23, %invoke.cont29 ], [ null, %new.cont21 ]
  %fScanner34 = getelementptr inbounds %"class.icu_75::RBBIRuleBuilder", ptr %this1, i32 0, i32 6
  store ptr %15, ptr %fScanner34, align 8
  %call35 = call noundef ptr @_ZN6icu_757UMemorynwEm(i64 noundef 56) #8
  %new.isnull36 = icmp eq ptr %call35, null
  store i1 false, ptr %cleanup.cond39, align 1
  br i1 %new.isnull36, label %new.cont45, label %new.notnull37

new.notnull37:                                    ; preds = %new.cont33
  store ptr %call35, ptr %saved-rvalue38, align 8
  store i1 true, ptr %cleanup.cond39, align 1
  invoke void @_ZN6icu_7514RBBISetBuilderC1EPNS_15RBBIRuleBuilderE(ptr noundef nonnull align 8 dereferenceable(53) %call35, ptr noundef %this1)
          to label %invoke.cont41 unwind label %lpad40

invoke.cont41:                                    ; preds = %new.notnull37
  br label %new.cont45

new.cont45:                                       ; preds = %invoke.cont41, %new.cont33
  %16 = phi ptr [ %call35, %invoke.cont41 ], [ null, %new.cont33 ]
  %fSetBuilder46 = getelementptr inbounds %"class.icu_75::RBBIRuleBuilder", ptr %this1, i32 0, i32 14
  store ptr %16, ptr %fSetBuilder46, align 8
  %17 = load ptr, ptr %status.addr, align 8
  %18 = load i32, ptr %17, align 4
  %call48 = invoke noundef signext i8 @_ZL9U_FAILURE10UErrorCode(i32 noundef %18)
          to label %invoke.cont47 unwind label %lpad

invoke.cont47:                                    ; preds = %new.cont45
  %tobool49 = icmp ne i8 %call48, 0
  br i1 %tobool49, label %if.then50, label %if.end51

if.then50:                                        ; preds = %invoke.cont47
  br label %if.end62

lpad8:                                            ; preds = %new.notnull
  %19 = landingpad { ptr, i32 }
          cleanup
  %20 = extractvalue { ptr, i32 } %19, 0
  store ptr %20, ptr %exn.slot, align 8
  %21 = extractvalue { ptr, i32 } %19, 1
  store i32 %21, ptr %ehselector.slot, align 4
  %cleanup.is_active = load i1, ptr %cleanup.cond, align 1
  br i1 %cleanup.is_active, label %cleanup.action, label %cleanup.done

cleanup.action:                                   ; preds = %lpad8
  %22 = load ptr, ptr %saved-rvalue, align 8
  call void @_ZN6icu_757UMemorydlEPv(ptr noundef %22) #8
  br label %cleanup.done

cleanup.done:                                     ; preds = %cleanup.action, %lpad8
  br label %ehcleanup

lpad16:                                           ; preds = %new.notnull13
  %23 = landingpad { ptr, i32 }
          cleanup
  %24 = extractvalue { ptr, i32 } %23, 0
  store ptr %24, ptr %exn.slot, align 8
  %25 = extractvalue { ptr, i32 } %23, 1
  store i32 %25, ptr %ehselector.slot, align 4
  %cleanup.is_active18 = load i1, ptr %cleanup.cond15, align 1
  br i1 %cleanup.is_active18, label %cleanup.action19, label %cleanup.done20

cleanup.action19:                                 ; preds = %lpad16
  %26 = load ptr, ptr %saved-rvalue14, align 8
  call void @_ZN6icu_757UMemorydlEPv(ptr noundef %26) #8
  br label %cleanup.done20

cleanup.done20:                                   ; preds = %cleanup.action19, %lpad16
  br label %ehcleanup

lpad28:                                           ; preds = %new.notnull25
  %27 = landingpad { ptr, i32 }
          cleanup
  %28 = extractvalue { ptr, i32 } %27, 0
  store ptr %28, ptr %exn.slot, align 8
  %29 = extractvalue { ptr, i32 } %27, 1
  store i32 %29, ptr %ehselector.slot, align 4
  %cleanup.is_active30 = load i1, ptr %cleanup.cond27, align 1
  br i1 %cleanup.is_active30, label %cleanup.action31, label %cleanup.done32

cleanup.action31:                                 ; preds = %lpad28
  %30 = load ptr, ptr %saved-rvalue26, align 8
  call void @_ZN6icu_757UMemorydlEPv(ptr noundef %30) #8
  br label %cleanup.done32

cleanup.done32:                                   ; preds = %cleanup.action31, %lpad28
  br label %ehcleanup

lpad40:                                           ; preds = %new.notnull37
  %31 = landingpad { ptr, i32 }
          cleanup
  %32 = extractvalue { ptr, i32 } %31, 0
  store ptr %32, ptr %exn.slot, align 8
  %33 = extractvalue { ptr, i32 } %31, 1
  store i32 %33, ptr %ehselector.slot, align 4
  %cleanup.is_active42 = load i1, ptr %cleanup.cond39, align 1
  br i1 %cleanup.is_active42, label %cleanup.action43, label %cleanup.done44

cleanup.action43:                                 ; preds = %lpad40
  %34 = load ptr, ptr %saved-rvalue38, align 8
  call void @_ZN6icu_757UMemorydlEPv(ptr noundef %34) #8
  br label %cleanup.done44

cleanup.done44:                                   ; preds = %cleanup.action43, %lpad40
  br label %ehcleanup

if.end51:                                         ; preds = %invoke.cont47
  %fSetBuilder52 = getelementptr inbounds %"class.icu_75::RBBIRuleBuilder", ptr %this1, i32 0, i32 14
  %35 = load ptr, ptr %fSetBuilder52, align 8
  %cmp = icmp eq ptr %35, null
  br i1 %cmp, label %if.then61, label %lor.lhs.false

lor.lhs.false:                                    ; preds = %if.end51
  %fScanner53 = getelementptr inbounds %"class.icu_75::RBBIRuleBuilder", ptr %this1, i32 0, i32 6
  %36 = load ptr, ptr %fScanner53, align 8
  %cmp54 = icmp eq ptr %36, null
  br i1 %cmp54, label %if.then61, label %lor.lhs.false55

lor.lhs.false55:                                  ; preds = %lor.lhs.false
  %fUSetNodes56 = getelementptr inbounds %"class.icu_75::RBBIRuleBuilder", ptr %this1, i32 0, i32 15
  %37 = load ptr, ptr %fUSetNodes56, align 8
  %cmp57 = icmp eq ptr %37, null
  br i1 %cmp57, label %if.then61, label %lor.lhs.false58

lor.lhs.false58:                                  ; preds = %lor.lhs.false55
  %fRuleStatusVals59 = getelementptr inbounds %"class.icu_75::RBBIRuleBuilder", ptr %this1, i32 0, i32 17
  %38 = load ptr, ptr %fRuleStatusVals59, align 8
  %cmp60 = icmp eq ptr %38, null
  br i1 %cmp60, label %if.then61, label %if.end62

if.then61:                                        ; preds = %lor.lhs.false58, %lor.lhs.false55, %lor.lhs.false, %if.end51
  %39 = load ptr, ptr %status.addr, align 8
  store i32 7, ptr %39, align 4
  br label %if.end62

if.end62:                                         ; preds = %if.then61, %lor.lhs.false58, %if.then50, %if.then5
  ret void

ehcleanup:                                        ; preds = %cleanup.done44, %cleanup.done32, %cleanup.done20, %cleanup.done, %lpad
  call void @_ZN6icu_7513UnicodeStringD1Ev(ptr noundef nonnull align 8 dereferenceable(64) %fStrippedRules) #8
  br label %eh.resume

eh.resume:                                        ; preds = %ehcleanup
  %exn = load ptr, ptr %exn.slot, align 8
  %sel = load i32, ptr %ehselector.slot, align 4
  %lpad.val = insertvalue { ptr, i32 } poison, ptr %exn, 0
  %lpad.val63 = insertvalue { ptr, i32 } %lpad.val, i32 %sel, 1
  resume { ptr, i32 } %lpad.val63
}