; Function Attrs: mustprogress uwtable
define void @_ZN6icu_7515RBBIRuleBuilderC2ERKNS_13UnicodeStringEP11UParseErrorR10UErrorCode(ptr noundef nonnull align 8 dereferenceable(192) %this, ptr noundef nonnull align 8 dereferenceable(64) %rules, ptr noundef %parseErr, ptr noundef nonnull align 4 dereferenceable(4) %status) unnamed_addr #0 align 2 personality ptr @__gxx_personality_v0 {
entry:
  store ptr getelementptr inbounds ({ [4 x ptr] }, ptr @_ZTVN6icu_7515RBBIRuleBuilderE, i64 0, i32 0, i64 2), ptr %this, align 8
  %fRules = getelementptr inbounds i8, ptr %this, i64 32
  store ptr %rules, ptr %fRules, align 8
  %fStrippedRules = getelementptr inbounds i8, ptr %this, i64 40
  tail call void @_ZN6icu_7513UnicodeStringC1ERKS0_(ptr noundef nonnull align 8 dereferenceable(64) %fStrippedRules, ptr noundef nonnull align 8 dereferenceable(64) %rules)
  %fStatus = getelementptr inbounds i8, ptr %this, i64 16
  store ptr %status, ptr %fStatus, align 8
  %fParseError = getelementptr inbounds i8, ptr %this, i64 24
  store ptr %parseErr, ptr %fParseError, align 8
  %fDebugEnv = getelementptr inbounds i8, ptr %this, i64 8
  store ptr null, ptr %fDebugEnv, align 8
  %fForwardTree = getelementptr inbounds i8, ptr %this, i64 112
  %fDefaultTree = getelementptr inbounds i8, ptr %this, i64 144
  tail call void @llvm.memset.p0.i64(ptr noundef nonnull align 8 dereferenceable(32) %fForwardTree, i8 0, i64 32, i1 false)
  store ptr %fForwardTree, ptr %fDefaultTree, align 8
  %fRuleStatusVals = getelementptr inbounds i8, ptr %this, i64 184
  %fChainRules = getelementptr inbounds i8, ptr %this, i64 152
  store i8 0, ptr %fChainRules, align 8
  %fLookAheadHardBreak = getelementptr inbounds i8, ptr %this, i64 153
  store i8 0, ptr %fLookAheadHardBreak, align 1
  %fUSetNodes = getelementptr inbounds i8, ptr %this, i64 168
  %fScanner = getelementptr inbounds i8, ptr %this, i64 104
  store ptr null, ptr %fScanner, align 8
  %fSetBuilder = getelementptr inbounds i8, ptr %this, i64 160
  %tobool.not = icmp eq ptr %parseErr, null
  tail call void @llvm.memset.p0.i64(ptr noundef nonnull align 8 dereferenceable(32) %fSetBuilder, i8 0, i64 32, i1 false)
  br i1 %tobool.not, label %if.end, label %if.then

if.then:                                          ; preds = %entry
  tail call void @llvm.memset.p0.i64(ptr noundef nonnull align 4 dereferenceable(72) %parseErr, i8 0, i64 72, i1 false)
  br label %if.end

if.end:                                           ; preds = %if.then, %entry
  %0 = load i32, ptr %status, align 4
  %cmp.i = icmp slt i32 %0, 1
  br i1 %cmp.i, label %if.end6, label %if.end62

if.end6:                                          ; preds = %if.end
  %call7 = tail call noundef ptr @_ZN6icu_757UMemorynwEm(i64 noundef 40) #8
  %new.isnull = icmp eq ptr %call7, null
  br i1 %new.isnull, label %new.cont, label %new.notnull

new.notnull:                                      ; preds = %if.end6
  invoke void @_ZN6icu_757UVectorC1ER10UErrorCode(ptr noundef nonnull align 8 dereferenceable(40) %call7, ptr noundef nonnull align 4 dereferenceable(4) %status)
          to label %new.cont unwind label %lpad8

new.cont:                                         ; preds = %new.notnull, %if.end6
  store ptr %call7, ptr %fUSetNodes, align 8
  %call11 = tail call noundef ptr @_ZN6icu_757UMemorynwEm(i64 noundef 40) #8
  %new.isnull12 = icmp eq ptr %call11, null
  br i1 %new.isnull12, label %new.cont21, label %new.notnull13

new.notnull13:                                    ; preds = %new.cont
  invoke void @_ZN6icu_757UVectorC1ER10UErrorCode(ptr noundef nonnull align 8 dereferenceable(40) %call11, ptr noundef nonnull align 4 dereferenceable(4) %status)
          to label %new.cont21 unwind label %lpad16

new.cont21:                                       ; preds = %new.notnull13, %new.cont
  store ptr %call11, ptr %fRuleStatusVals, align 8
  %call23 = tail call noundef ptr @_ZN6icu_757UMemorynwEm(i64 noundef 3192) #8
  %new.isnull24 = icmp eq ptr %call23, null
  br i1 %new.isnull24, label %new.cont33, label %new.notnull25

new.notnull25:                                    ; preds = %new.cont21
  invoke void @_ZN6icu_7515RBBIRuleScannerC1EPNS_15RBBIRuleBuilderE(ptr noundef nonnull align 8 dereferenceable(3192) %call23, ptr noundef nonnull %this)
          to label %new.cont33 unwind label %lpad28

new.cont33:                                       ; preds = %new.notnull25, %new.cont21
  store ptr %call23, ptr %fScanner, align 8
  %call35 = tail call noundef ptr @_ZN6icu_757UMemorynwEm(i64 noundef 56) #8
  %new.isnull36 = icmp eq ptr %call35, null
  br i1 %new.isnull36, label %new.cont45, label %new.notnull37

new.notnull37:                                    ; preds = %new.cont33
  invoke void @_ZN6icu_7514RBBISetBuilderC1EPNS_15RBBIRuleBuilderE(ptr noundef nonnull align 8 dereferenceable(53) %call35, ptr noundef nonnull %this)
          to label %new.cont45 unwind label %lpad40

new.cont45:                                       ; preds = %new.notnull37, %new.cont33
  store ptr %call35, ptr %fSetBuilder, align 8
  %1 = load i32, ptr %status, align 4
  %cmp.i12 = icmp slt i32 %1, 1
  br i1 %cmp.i12, label %if.end51, label %if.end62

lpad8:                                            ; preds = %new.notnull
  %2 = landingpad { ptr, i32 }
          cleanup
  br label %ehcleanup

lpad16:                                           ; preds = %new.notnull13
  %3 = landingpad { ptr, i32 }
          cleanup
  br label %ehcleanup

lpad28:                                           ; preds = %new.notnull25
  %4 = landingpad { ptr, i32 }
          cleanup
  br label %ehcleanup

lpad40:                                           ; preds = %new.notnull37
  %5 = landingpad { ptr, i32 }
          cleanup
  br label %ehcleanup

if.end51:                                         ; preds = %new.cont45
  %6 = load ptr, ptr %fScanner, align 8
  %cmp54 = icmp eq ptr %6, null
  %or.cond = select i1 %new.isnull36, i1 true, i1 %cmp54
  %7 = load ptr, ptr %fUSetNodes, align 8
  %cmp57 = icmp eq ptr %7, null
  %or.cond10 = select i1 %or.cond, i1 true, i1 %cmp57
  %8 = load ptr, ptr %fRuleStatusVals, align 8
  %cmp60 = icmp eq ptr %8, null
  %or.cond11 = select i1 %or.cond10, i1 true, i1 %cmp60
  br i1 %or.cond11, label %if.then61, label %if.end62

if.then61:                                        ; preds = %if.end51
  store i32 7, ptr %status, align 4
  br label %if.end62

if.end62:                                         ; preds = %if.end51, %new.cont45, %if.end, %if.then61
  ret void

ehcleanup:                                        ; preds = %lpad40, %lpad28, %lpad16, %lpad8
  %call35.sink = phi ptr [ %call35, %lpad40 ], [ %call23, %lpad28 ], [ %call11, %lpad16 ], [ %call7, %lpad8 ]
  %.pn = phi { ptr, i32 } [ %5, %lpad40 ], [ %4, %lpad28 ], [ %3, %lpad16 ], [ %2, %lpad8 ]
  tail call void @_ZN6icu_757UMemorydlEPv(ptr noundef nonnull %call35.sink) #8
  tail call void @_ZN6icu_7513UnicodeStringD1Ev(ptr noundef nonnull align 8 dereferenceable(64) %fStrippedRules) #8
  resume { ptr, i32 } %.pn
}